	.file	"ds18b20.c"
__SP_H__ = 0x3e
__SP_L__ = 0x3d
__SREG__ = 0x3f
__tmp_reg__ = 0
__zero_reg__ = 1
	.text
.Ltext0:
	.cfi_sections	.debug_frame
	.section	.text.ds18b20crc8,"ax",@progbits
.global	ds18b20crc8
	.type	ds18b20crc8, @function
ds18b20crc8:
.LFB6:
	.file 1 "../src/libraries/avr-ds80b20/ds18b20.c"
	.loc 1 21 0
	.cfi_startproc
.LVL0:
/* prologue: function */
/* frame size = 0 */
/* stack size = 0 */
.L__stack_usage = 0
	movw r26,r24
.LVL1:
	.loc 1 27 0
	ldi r24,0
.LVL2:
	.loc 1 30 0
	ldi r20,0
	rjmp .L2
.LVL3:
.L6:
	.loc 1 32 0
	movw r30,r26
	add r30,r20
	adc r31,__zero_reg__
	ld r18,Z
.LVL4:
	.loc 1 34 0
	ldi r25,0
	rjmp .L3
.LVL5:
.L5:
	.loc 1 36 0
	mov r19,r24
	eor r19,r18
.LVL6:
	.loc 1 37 0
	lsr r24
.LVL7:
	.loc 1 38 0
	sbrs r19,0
	rjmp .L4
	.loc 1 38 0 is_stmt 0 discriminator 1
	ldi r19,lo8(-116)
.LVL8:
	eor r24,r19
.LVL9:
.L4:
	.loc 1 39 0 is_stmt 1 discriminator 2
	lsr r18
.LVL10:
	.loc 1 34 0 discriminator 2
	subi r25,lo8(-(1))
.LVL11:
.L3:
	.loc 1 34 0 is_stmt 0 discriminator 1
	cpi r25,lo8(8)
	brlo .L5
	.loc 1 30 0 is_stmt 1 discriminator 2
	subi r20,lo8(-(1))
.LVL12:
.L2:
	.loc 1 30 0 is_stmt 0 discriminator 1
	cp r20,r22
	brlo .L6
/* epilogue start */
	.loc 1 43 0 is_stmt 1
	ret
	.cfi_endproc
.LFE6:
	.size	ds18b20crc8, .-ds18b20crc8
	.section	.text.ds18b20match,"ax",@progbits
.global	ds18b20match
	.type	ds18b20match, @function
ds18b20match:
.LFB7:
	.loc 1 47 0
	.cfi_startproc
.LVL13:
	push r8
.LCFI0:
	.cfi_def_cfa_offset 3
	.cfi_offset 8, -2
	push r9
.LCFI1:
	.cfi_def_cfa_offset 4
	.cfi_offset 9, -3
	push r10
.LCFI2:
	.cfi_def_cfa_offset 5
	.cfi_offset 10, -4
	push r11
.LCFI3:
	.cfi_def_cfa_offset 6
	.cfi_offset 11, -5
	push r12
.LCFI4:
	.cfi_def_cfa_offset 7
	.cfi_offset 12, -6
	push r13
.LCFI5:
	.cfi_def_cfa_offset 8
	.cfi_offset 13, -7
	push r14
.LCFI6:
	.cfi_def_cfa_offset 9
	.cfi_offset 14, -8
	push r15
.LCFI7:
	.cfi_def_cfa_offset 10
	.cfi_offset 15, -9
	push r16
.LCFI8:
	.cfi_def_cfa_offset 11
	.cfi_offset 16, -10
	push r17
.LCFI9:
	.cfi_def_cfa_offset 12
	.cfi_offset 17, -11
	push r28
.LCFI10:
	.cfi_def_cfa_offset 13
	.cfi_offset 28, -12
	push r29
.LCFI11:
	.cfi_def_cfa_offset 14
	.cfi_offset 29, -13
/* prologue: function */
/* frame size = 0 */
/* stack size = 12 */
.L__stack_usage = 12
	movw r14,r24
	movw r12,r22
	movw r10,r20
	mov r29,r18
	movw r8,r16
.LVL14:
	.loc 1 54 0
	or r16,r17
	brne .L8
	.loc 1 57 0
	ldi r16,lo8(-52)
.LVL15:
	call onewireWrite
.LVL16:
	rjmp .L7
.LVL17:
.L8:
	.loc 1 62 0
	ldi r16,lo8(85)
	call onewireWrite
.LVL18:
	.loc 1 63 0
	ldi r28,0
	rjmp .L10
.LVL19:
.L11:
	.loc 1 64 0 discriminator 3
	movw r30,r8
	add r30,r28
	adc r31,__zero_reg__
	ld r16,Z
	mov r18,r29
	movw r20,r10
	movw r22,r12
	movw r24,r14
	call onewireWrite
.LVL20:
	.loc 1 63 0 discriminator 3
	subi r28,lo8(-(1))
.LVL21:
.L10:
	.loc 1 63 0 is_stmt 0 discriminator 1
	cpi r28,lo8(8)
	brlo .L11
.LVL22:
.L7:
/* epilogue start */
	.loc 1 66 0 is_stmt 1
	pop r29
.LVL23:
	pop r28
	pop r17
	pop r16
	pop r15
	pop r14
.LVL24:
	pop r13
	pop r12
.LVL25:
	pop r11
	pop r10
.LVL26:
	pop r9
	pop r8
.LVL27:
	ret
	.cfi_endproc
.LFE7:
	.size	ds18b20match, .-ds18b20match
	.section	.text.ds18b20convert,"ax",@progbits
.global	ds18b20convert
	.type	ds18b20convert, @function
ds18b20convert:
.LFB8:
	.loc 1 70 0
	.cfi_startproc
.LVL28:
	push r11
.LCFI12:
	.cfi_def_cfa_offset 3
	.cfi_offset 11, -2
	push r12
.LCFI13:
	.cfi_def_cfa_offset 4
	.cfi_offset 12, -3
	push r13
.LCFI14:
	.cfi_def_cfa_offset 5
	.cfi_offset 13, -4
	push r14
.LCFI15:
	.cfi_def_cfa_offset 6
	.cfi_offset 14, -5
	push r15
.LCFI16:
	.cfi_def_cfa_offset 7
	.cfi_offset 15, -6
	push r16
.LCFI17:
	.cfi_def_cfa_offset 8
	.cfi_offset 16, -7
	push r17
.LCFI18:
	.cfi_def_cfa_offset 9
	.cfi_offset 17, -8
	push r28
.LCFI19:
	.cfi_def_cfa_offset 10
	.cfi_offset 28, -9
	push r29
.LCFI20:
	.cfi_def_cfa_offset 11
	.cfi_offset 29, -10
/* prologue: function */
/* frame size = 0 */
/* stack size = 9 */
.L__stack_usage = 9
	movw r28,r24
	movw r14,r22
	movw r12,r20
	mov r11,r18
	.loc 1 74 0
	call onewireInit
.LVL29:
	cpi r24,lo8(1)
	breq .L13
	.loc 1 78 0
	mov r18,r11
	movw r20,r12
	movw r22,r14
	movw r24,r28
	call ds18b20match
.LVL30:
	.loc 1 81 0
	ldi r16,lo8(68)
.LVL31:
	mov r18,r11
	movw r20,r12
	movw r22,r14
	movw r24,r28
	call onewireWrite
.LVL32:
	.loc 1 83 0
	ldi r24,0
.L13:
/* epilogue start */
	.loc 1 84 0
	pop r29
	pop r28
.LVL33:
	pop r17
	pop r16
	pop r15
	pop r14
.LVL34:
	pop r13
	pop r12
.LVL35:
	pop r11
.LVL36:
	ret
	.cfi_endproc
.LFE8:
	.size	ds18b20convert, .-ds18b20convert
	.section	.text.ds18b20rsp,"ax",@progbits
.global	ds18b20rsp
	.type	ds18b20rsp, @function
ds18b20rsp:
.LFB9:
	.loc 1 88 0
	.cfi_startproc
.LVL37:
	push r8
.LCFI21:
	.cfi_def_cfa_offset 3
	.cfi_offset 8, -2
	push r9
.LCFI22:
	.cfi_def_cfa_offset 4
	.cfi_offset 9, -3
	push r10
.LCFI23:
	.cfi_def_cfa_offset 5
	.cfi_offset 10, -4
	push r11
.LCFI24:
	.cfi_def_cfa_offset 6
	.cfi_offset 11, -5
	push r12
.LCFI25:
	.cfi_def_cfa_offset 7
	.cfi_offset 12, -6
	push r13
.LCFI26:
	.cfi_def_cfa_offset 8
	.cfi_offset 13, -7
	push r14
.LCFI27:
	.cfi_def_cfa_offset 9
	.cfi_offset 14, -8
	push r15
.LCFI28:
	.cfi_def_cfa_offset 10
	.cfi_offset 15, -9
	push r16
.LCFI29:
	.cfi_def_cfa_offset 11
	.cfi_offset 16, -10
	push r17
.LCFI30:
	.cfi_def_cfa_offset 12
	.cfi_offset 17, -11
	push r28
.LCFI31:
	.cfi_def_cfa_offset 13
	.cfi_offset 28, -12
	push r29
.LCFI32:
	.cfi_def_cfa_offset 14
	.cfi_offset 29, -13
/* prologue: function */
/* frame size = 0 */
/* stack size = 12 */
.L__stack_usage = 12
	movw r12,r24
	movw r10,r22
	movw r8,r20
	mov r29,r18
.LVL38:
	.loc 1 94 0
	call onewireInit
.LVL39:
	cpi r24,lo8(1)
	breq .L15
	.loc 1 98 0
	mov r18,r29
	movw r20,r8
	movw r22,r10
	movw r24,r12
	call ds18b20match
.LVL40:
	.loc 1 101 0
	ldi r16,lo8(-66)
.LVL41:
	mov r18,r29
	movw r20,r8
	movw r22,r10
	movw r24,r12
	call onewireWrite
.LVL42:
	.loc 1 102 0
	ldi r28,0
	rjmp .L16
.LVL43:
.L17:
	.loc 1 103 0 discriminator 3
	movw r16,r14
	add r16,r28
	adc r17,__zero_reg__
	mov r18,r29
	movw r20,r8
	movw r22,r10
	movw r24,r12
	call onewireRead
.LVL44:
	movw r30,r16
	st Z,r24
	.loc 1 102 0 discriminator 3
	subi r28,lo8(-(1))
.LVL45:
.L16:
	.loc 1 102 0 is_stmt 0 discriminator 1
	cpi r28,lo8(9)
	brlo .L17
	.loc 1 106 0 is_stmt 1
	movw r30,r14
	ld r23,Z
	ldd r24,Z+1
	ldd r22,Z+2
	ldd r21,Z+3
	ldd r20,Z+4
	ldd r19,Z+5
	ldd r18,Z+6
	ldd r25,Z+7
	or r24,r23
	or r24,r22
	or r24,r21
	or r24,r20
	or r24,r19
	or r24,r18
	or r24,r25
	breq .L18
	.loc 1 110 0
	ldi r22,lo8(8)
	movw r24,r14
	call ds18b20crc8
.LVL46:
	movw r30,r14
	ldd r25,Z+8
	cp r24,r25
	breq .L19
	.loc 1 111 0
	ldi r24,lo8(2)
	rjmp .L15
.L18:
	.loc 1 107 0
	ldi r24,lo8(3)
	rjmp .L15
.L19:
	.loc 1 113 0
	ldi r24,0
.LVL47:
.L15:
/* epilogue start */
	.loc 1 114 0
	pop r29
.LVL48:
	pop r28
	pop r17
	pop r16
	pop r15
	pop r14
.LVL49:
	pop r13
	pop r12
.LVL50:
	pop r11
	pop r10
.LVL51:
	pop r9
	pop r8
.LVL52:
	ret
	.cfi_endproc
.LFE9:
	.size	ds18b20rsp, .-ds18b20rsp
	.section	.text.ds18b20wsp,"ax",@progbits
.global	ds18b20wsp
	.type	ds18b20wsp, @function
ds18b20wsp:
.LFB10:
	.loc 1 118 0
	.cfi_startproc
.LVL53:
	push r6
.LCFI33:
	.cfi_def_cfa_offset 3
	.cfi_offset 6, -2
	push r7
.LCFI34:
	.cfi_def_cfa_offset 4
	.cfi_offset 7, -3
	push r8
.LCFI35:
	.cfi_def_cfa_offset 5
	.cfi_offset 8, -4
	push r9
.LCFI36:
	.cfi_def_cfa_offset 6
	.cfi_offset 9, -5
	push r10
.LCFI37:
	.cfi_def_cfa_offset 7
	.cfi_offset 10, -6
	push r12
.LCFI38:
	.cfi_def_cfa_offset 8
	.cfi_offset 12, -7
	push r14
.LCFI39:
	.cfi_def_cfa_offset 9
	.cfi_offset 14, -8
	push r15
.LCFI40:
	.cfi_def_cfa_offset 10
	.cfi_offset 15, -9
	push r16
.LCFI41:
	.cfi_def_cfa_offset 11
	.cfi_offset 16, -10
	push r17
.LCFI42:
	.cfi_def_cfa_offset 12
	.cfi_offset 17, -11
	push r28
.LCFI43:
	.cfi_def_cfa_offset 13
	.cfi_offset 28, -12
	push r29
.LCFI44:
	.cfi_def_cfa_offset 14
	.cfi_offset 29, -13
/* prologue: function */
/* frame size = 0 */
/* stack size = 12 */
.L__stack_usage = 12
	movw r28,r24
	movw r8,r22
	movw r6,r20
	mov r15,r18
	.loc 1 125 0
	call onewireInit
.LVL54:
	cpi r24,lo8(1)
	breq .L21
	.loc 1 129 0
	mov r18,r15
	movw r20,r6
	movw r22,r8
	movw r24,r28
	call ds18b20match
.LVL55:
	.loc 1 132 0
	ldi r16,lo8(78)
.LVL56:
	mov r18,r15
	movw r20,r6
	movw r22,r8
	movw r24,r28
	call onewireWrite
.LVL57:
	.loc 1 133 0
	mov r16,r14
	mov r18,r15
	movw r20,r6
	movw r22,r8
	movw r24,r28
	call onewireWrite
.LVL58:
	.loc 1 134 0
	mov r16,r12
	mov r18,r15
	movw r20,r6
	movw r22,r8
	movw r24,r28
	call onewireWrite
.LVL59:
	.loc 1 135 0
	mov r16,r10
	mov r18,r15
	movw r20,r6
	movw r22,r8
	movw r24,r28
	call onewireWrite
.LVL60:
	.loc 1 137 0
	ldi r24,0
.L21:
/* epilogue start */
	.loc 1 138 0
	pop r29
	pop r28
.LVL61:
	pop r17
	pop r16
	pop r15
.LVL62:
	pop r14
.LVL63:
	pop r12
.LVL64:
	pop r10
.LVL65:
	pop r9
	pop r8
.LVL66:
	pop r7
	pop r6
.LVL67:
	ret
	.cfi_endproc
.LFE10:
	.size	ds18b20wsp, .-ds18b20wsp
	.section	.text.ds18b20csp,"ax",@progbits
.global	ds18b20csp
	.type	ds18b20csp, @function
ds18b20csp:
.LFB11:
	.loc 1 142 0
	.cfi_startproc
.LVL68:
	push r10
.LCFI45:
	.cfi_def_cfa_offset 3
	.cfi_offset 10, -2
	push r11
.LCFI46:
	.cfi_def_cfa_offset 4
	.cfi_offset 11, -3
	push r12
.LCFI47:
	.cfi_def_cfa_offset 5
	.cfi_offset 12, -4
	push r13
.LCFI48:
	.cfi_def_cfa_offset 6
	.cfi_offset 13, -5
	push r15
.LCFI49:
	.cfi_def_cfa_offset 7
	.cfi_offset 15, -6
	push r16
.LCFI50:
	.cfi_def_cfa_offset 8
	.cfi_offset 16, -7
	push r17
.LCFI51:
	.cfi_def_cfa_offset 9
	.cfi_offset 17, -8
	push r28
.LCFI52:
	.cfi_def_cfa_offset 10
	.cfi_offset 28, -9
	push r29
.LCFI53:
	.cfi_def_cfa_offset 11
	.cfi_offset 29, -10
/* prologue: function */
/* frame size = 0 */
/* stack size = 9 */
.L__stack_usage = 9
	movw r12,r24
	movw r28,r22
	movw r10,r20
	mov r15,r18
	.loc 1 146 0
	call onewireInit
.LVL69:
	cpi r24,lo8(1)
	breq .L23
	.loc 1 150 0
	mov r18,r15
	movw r20,r10
	movw r22,r28
	movw r24,r12
	call ds18b20match
.LVL70:
	.loc 1 153 0
	ldi r16,lo8(72)
.LVL71:
	mov r18,r15
	movw r20,r10
	movw r22,r28
	movw r24,r12
	call onewireWrite
.LVL72:
	.loc 1 157 0
	movw r30,r12
	ld r24,Z
	or r24,r15
	st Z,r24
	.loc 1 158 0
	ld r24,Y
	or r15,r24
.LVL73:
	st Y,r15
	.loc 1 160 0
	ldi r24,0
.L23:
/* epilogue start */
	.loc 1 161 0
	pop r29
	pop r28
.LVL74:
	pop r17
	pop r16
	pop r15
	pop r13
	pop r12
.LVL75:
	pop r11
	pop r10
.LVL76:
	ret
	.cfi_endproc
.LFE11:
	.size	ds18b20csp, .-ds18b20csp
	.section	.text.ds18b20read,"ax",@progbits
.global	ds18b20read
	.type	ds18b20read, @function
ds18b20read:
.LFB12:
	.loc 1 165 0
	.cfi_startproc
.LVL77:
	push r12
.LCFI54:
	.cfi_def_cfa_offset 3
	.cfi_offset 12, -2
	push r13
.LCFI55:
	.cfi_def_cfa_offset 4
	.cfi_offset 13, -3
	push r14
.LCFI56:
	.cfi_def_cfa_offset 5
	.cfi_offset 14, -4
	push r15
.LCFI57:
	.cfi_def_cfa_offset 6
	.cfi_offset 15, -5
	push r16
.LCFI58:
	.cfi_def_cfa_offset 7
	.cfi_offset 16, -6
	push r17
.LCFI59:
	.cfi_def_cfa_offset 8
	.cfi_offset 17, -7
	push r28
.LCFI60:
	.cfi_def_cfa_offset 9
	.cfi_offset 28, -8
	push r29
.LCFI61:
	.cfi_def_cfa_offset 10
	.cfi_offset 29, -9
	in r28,__SP_L__
	in r29,__SP_H__
.LCFI62:
	.cfi_def_cfa_register 28
	sbiw r28,9
.LCFI63:
	.cfi_def_cfa_offset 19
	in __tmp_reg__,__SREG__
	cli
	out __SP_H__,r29
	out __SREG__,__tmp_reg__
	out __SP_L__,r28
/* prologue: function */
/* frame size = 9 */
/* stack size = 17 */
.L__stack_usage = 17
	movw r12,r14
.LVL78:
	.loc 1 173 0
	movw r30,r28
	adiw r30,1
	movw r14,r30
.LVL79:
	call ds18b20rsp
.LVL80:
	.loc 1 175 0
	tst r24
	breq .L25
	.loc 1 177 0
	movw r30,r12
	std Z+1,__zero_reg__
	st Z,__zero_reg__
	.loc 1 178 0
	rjmp .L26
.L25:
	.loc 1 182 0
	ldd r24,Y+2
.LVL81:
	ldi r25,0
	mov r25,r24
	clr r24
	ldd r18,Y+1
	add r24,r18
	adc r25,__zero_reg__
	movw r30,r12
	std Z+1,r25
	st Z,r24
	.loc 1 184 0
	ldi r24,0
.L26:
/* epilogue start */
	.loc 1 185 0
	adiw r28,9
	in __tmp_reg__,__SREG__
	cli
	out __SP_H__,r29
	out __SREG__,__tmp_reg__
	out __SP_L__,r28
	pop r29
	pop r28
	pop r17
	pop r16
.LVL82:
	pop r15
	pop r14
	pop r13
	pop r12
.LVL83:
	ret
	.cfi_endproc
.LFE12:
	.size	ds18b20read, .-ds18b20read
	.section	.text.ds18b20rom,"ax",@progbits
.global	ds18b20rom
	.type	ds18b20rom, @function
ds18b20rom:
.LFB13:
	.loc 1 189 0
	.cfi_startproc
.LVL84:
	push r8
.LCFI64:
	.cfi_def_cfa_offset 3
	.cfi_offset 8, -2
	push r9
.LCFI65:
	.cfi_def_cfa_offset 4
	.cfi_offset 9, -3
	push r10
.LCFI66:
	.cfi_def_cfa_offset 5
	.cfi_offset 10, -4
	push r11
.LCFI67:
	.cfi_def_cfa_offset 6
	.cfi_offset 11, -5
	push r12
.LCFI68:
	.cfi_def_cfa_offset 7
	.cfi_offset 12, -6
	push r13
.LCFI69:
	.cfi_def_cfa_offset 8
	.cfi_offset 13, -7
	push r14
.LCFI70:
	.cfi_def_cfa_offset 9
	.cfi_offset 14, -8
	push r15
.LCFI71:
	.cfi_def_cfa_offset 10
	.cfi_offset 15, -9
	push r16
.LCFI72:
	.cfi_def_cfa_offset 11
	.cfi_offset 16, -10
	push r17
.LCFI73:
	.cfi_def_cfa_offset 12
	.cfi_offset 17, -11
	push r28
.LCFI74:
	.cfi_def_cfa_offset 13
	.cfi_offset 28, -12
	push r29
.LCFI75:
	.cfi_def_cfa_offset 14
	.cfi_offset 29, -13
/* prologue: function */
/* frame size = 0 */
/* stack size = 12 */
.L__stack_usage = 12
.LVL85:
	.loc 1 194 0
	cp r16,__zero_reg__
	cpc r17,__zero_reg__
	brne .+2
	rjmp .L33
	movw r14,r16
	mov r29,r18
	movw r8,r20
	movw r10,r22
	movw r12,r24
	.loc 1 197 0
	call onewireInit
.LVL86:
	cpi r24,lo8(1)
	brne .+2
	rjmp .L28
	.loc 1 201 0
	ldi r16,lo8(51)
.LVL87:
	mov r18,r29
	movw r20,r8
	movw r22,r10
	movw r24,r12
	call onewireWrite
.LVL88:
	.loc 1 202 0
	ldi r28,0
	rjmp .L29
.LVL89:
.L30:
	.loc 1 203 0 discriminator 3
	movw r16,r14
	add r16,r28
	adc r17,__zero_reg__
	mov r18,r29
	movw r20,r8
	movw r22,r10
	movw r24,r12
	call onewireRead
.LVL90:
	movw r30,r16
	st Z,r24
	.loc 1 202 0 discriminator 3
	subi r28,lo8(-(1))
.LVL91:
.L29:
	.loc 1 202 0 is_stmt 0 discriminator 1
	cpi r28,lo8(8)
	brlo .L30
	.loc 1 206 0 is_stmt 1
	movw r30,r14
	ld r22,Z
	ldd r24,Z+1
	ldd r21,Z+2
	ldd r20,Z+3
	ldd r19,Z+4
	ldd r18,Z+5
	ldd r25,Z+6
	ldd r28,Z+7
.LVL92:
	or r24,r22
	or r24,r21
	or r24,r20
	or r24,r19
	or r24,r18
	or r24,r25
	or r24,r28
	breq .L34
	.loc 1 209 0
	ldi r22,lo8(7)
	movw r24,r14
	call ds18b20crc8
.LVL93:
	cpse r28,r24
	rjmp .L35
	.loc 1 215 0
	ldi r24,0
	rjmp .L28
.LVL94:
.L32:
	.loc 1 211 0 discriminator 3
	movw r30,r14
	add r30,r24
	adc r31,__zero_reg__
	st Z,__zero_reg__
	subi r24,lo8(-(1))
.LVL95:
	rjmp .L31
.LVL96:
.L35:
	ldi r24,0
.L31:
.LVL97:
	.loc 1 211 0 is_stmt 0 discriminator 1
	cpi r24,lo8(8)
	brlo .L32
	.loc 1 212 0 is_stmt 1
	ldi r24,lo8(2)
.LVL98:
	rjmp .L28
.LVL99:
.L33:
	.loc 1 194 0
	ldi r24,lo8(4)
.LVL100:
	rjmp .L28
.LVL101:
.L34:
	.loc 1 206 0
	ldi r24,lo8(3)
.LVL102:
.L28:
/* epilogue start */
	.loc 1 216 0
	pop r29
	pop r28
	pop r17
	pop r16
	pop r15
	pop r14
	pop r13
	pop r12
	pop r11
	pop r10
	pop r9
	pop r8
	ret
	.cfi_endproc
.LFE13:
	.size	ds18b20rom, .-ds18b20rom
	.text
.Letext0:
	.file 2 "c:\\program files (x86)\\atmel\\studio\\7.0\\toolchain\\avr8\\avr8-gnu-toolchain\\avr\\include\\stdint.h"
	.file 3 "../src/libraries/avr-ds80b20/onewire.h"